target datalayout = "e-m:e-p270:32:32-p271:32:32-p272:64:64-i64:64-i128:128-f80:128-n8:16:32:64-S128"
target triple = "x86_64-pc-linux-gnu"

%struct.ec_group_st = type { ptr, ptr, ptr, ptr, i32, i32, i32, i32, ptr, i64, ptr, [6 x i32], ptr, ptr, i32, ptr, ptr, ptr, ptr, i32, %union.anon, ptr, ptr }
%union.anon = type { ptr }

@.str = private unnamed_addr constant [32 x i8] c"../openssl/crypto/ec/ecp_mont.c\00", align 1
@__func__.ossl_ec_GFp_mont_field_set_to_one = private unnamed_addr constant [34 x i8] c"ossl_ec_GFp_mont_field_set_to_one\00", align 1

; Function Attrs: nounwind uwtable
define i32 @ossl_ec_GFp_mont_field_set_to_one(ptr noundef %0, ptr noundef %1, ptr noundef %2) #0 {
  %4 = alloca i32, align 4
  %5 = alloca ptr, align 8
  %6 = alloca ptr, align 8
  %7 = alloca ptr, align 8
  store ptr %0, ptr %5, align 8, !tbaa !3
  store ptr %1, ptr %6, align 8, !tbaa !20
  store ptr %2, ptr %7, align 8, !tbaa !21
  %8 = load ptr, ptr %5, align 8, !tbaa !3
  %9 = getelementptr inbounds nuw %struct.ec_group_st, ptr %8, i32 0, i32 16
  %10 = load ptr, ptr %9, align 8, !tbaa !19
  %11 = icmp eq ptr %10, null
  br i1 %11, label %12, label %13

12:                                               ; preds = %3
  call void @ERR_new()
  call void @ERR_set_debug(ptr noundef @.str, i32 noundef 293, ptr noundef @__func__.ossl_ec_GFp_mont_field_set_to_one)
  call void (i32, i32, ptr, ...) @ERR_set_error(i32 noundef 16, i32 noundef 111, ptr noundef null)
  store i32 0, ptr %4, align 4
  br label %22

13:                                               ; preds = %3
  %14 = load ptr, ptr %6, align 8, !tbaa !20
  %15 = load ptr, ptr %5, align 8, !tbaa !3
  %16 = getelementptr inbounds nuw %struct.ec_group_st, ptr %15, i32 0, i32 16
  %17 = load ptr, ptr %16, align 8, !tbaa !19
  %18 = call ptr @BN_copy(ptr noundef %14, ptr noundef %17)
  %19 = icmp ne ptr %18, null
  br i1 %19, label %21, label %20

20:                                               ; preds = %13
  store i32 0, ptr %4, align 4
  br label %22

21:                                               ; preds = %13
  store i32 1, ptr %4, align 4
  br label %22

22:                                               ; preds = %21, %20, %12
  %23 = load i32, ptr %4, align 4
  ret i32 %23
}