; Function Attrs: nounwind uwtable
define range(i32 0, 2) i32 @ossl_ec_GFp_mont_field_set_to_one(ptr noundef readonly captures(none) %0, ptr noundef %1, ptr readnone captures(none) %2) #1 {
  %4 = getelementptr inbounds nuw i8, ptr %0, i64 128
  %5 = load ptr, ptr %4, align 8, !tbaa !16
  %6 = icmp eq ptr %5, null
  br i1 %6, label %7, label %8

7:                                                ; preds = %3
  tail call void @ERR_new() #4
  tail call void @ERR_set_debug(ptr noundef nonnull @.str, i32 noundef 293, ptr noundef nonnull @__func__.ossl_ec_GFp_mont_field_set_to_one) #4
  tail call void (i32, i32, ptr, ...) @ERR_set_error(i32 noundef 16, i32 noundef 111, ptr noundef null) #4
  br label %10

8:                                                ; preds = %3
  %9 = tail call ptr @BN_copy(ptr noundef %1, ptr noundef nonnull %5) #4
  %.not = icmp ne ptr %9, null
  %. = zext i1 %.not to i32
  br label %10

10:                                               ; preds = %8, %7
  %.0 = phi i32 [ 0, %7 ], [ %., %8 ]
  ret i32 %.0
}